target datalayout = "e-m:e-p270:32:32-p271:32:32-p272:64:64-i64:64-i128:128-f80:128-n8:16:32:64-S128"
target triple = "x86_64-pc-linux-gnu"

@ifcp_header_4_bytes = internal constant [4 x i8] c"\02\01\FD\FE", align 1

; Function Attrs: null_pointer_is_valid sspstrong uwtable
define internal zeroext i1 @ifcp_header_test(ptr noundef %0, i32 noundef %1) #0 {
  %3 = alloca i1, align 1
  %4 = alloca ptr, align 8
  %5 = alloca i32, align 4
  %6 = alloca i16, align 2
  %7 = alloca i16, align 2
  %8 = alloca i32, align 4
  store ptr %0, ptr %4, align 8
  store i32 %1, ptr %5, align 4
  call void @llvm.lifetime.start.p0(i64 2, ptr %6) #3
  call void @llvm.lifetime.start.p0(i64 2, ptr %7) #3
  %9 = load ptr, ptr %4, align 8
  %10 = load i32, ptr %5, align 4
  %11 = call i32 @tvb_captured_length_remaining(ptr noundef %9, i32 noundef %10)
  %12 = icmp slt i32 %11, 16
  br i1 %12, label %13, label %14

13:                                               ; preds = %2
  store i1 false, ptr %3, align 1
  store i32 1, ptr %8, align 4
  br label %53

14:                                               ; preds = %2
  %15 = load ptr, ptr %4, align 8
  %16 = load i32, ptr %5, align 4
  %17 = call i32 @tvb_memeql(ptr noundef %15, i32 noundef %16, ptr noundef @ifcp_header_4_bytes, i64 noundef 4)
  %18 = icmp ne i32 %17, 0
  br i1 %18, label %19, label %20

19:                                               ; preds = %14
  store i1 false, ptr %3, align 1
  store i32 1, ptr %8, align 4
  br label %53

20:                                               ; preds = %14
  %21 = load ptr, ptr %4, align 8
  %22 = load i32, ptr %5, align 4
  %23 = add i32 %22, 12
  %24 = call zeroext i16 @tvb_get_ntohs(ptr noundef %21, i32 noundef %23)
  %25 = zext i16 %24 to i32
  %26 = and i32 %25, 1023
  %27 = trunc i32 %26 to i16
  store i16 %27, ptr %6, align 2
  %28 = load i16, ptr %6, align 2
  %29 = zext i16 %28 to i32
  %30 = icmp slt i32 %29, 15
  br i1 %30, label %35, label %31

31:                                               ; preds = %20
  %32 = load i16, ptr %6, align 2
  %33 = zext i16 %32 to i32
  %34 = icmp sgt i32 %33, 545
  br i1 %34, label %35, label %36

35:                                               ; preds = %31, %20
  store i1 false, ptr %3, align 1
  store i32 1, ptr %8, align 4
  br label %53

36:                                               ; preds = %31
  %37 = load ptr, ptr %4, align 8
  %38 = load i32, ptr %5, align 4
  %39 = add i32 %38, 14
  %40 = call zeroext i16 @tvb_get_ntohs(ptr noundef %37, i32 noundef %39)
  %41 = zext i16 %40 to i32
  %42 = and i32 %41, 1023
  %43 = trunc i32 %42 to i16
  store i16 %43, ptr %7, align 2
  %44 = load i16, ptr %6, align 2
  %45 = zext i16 %44 to i32
  %46 = load i16, ptr %7, align 2
  %47 = zext i16 %46 to i32
  %48 = xor i32 %47, -1
  %49 = and i32 %48, 1023
  %50 = icmp ne i32 %45, %49
  br i1 %50, label %51, label %52

51:                                               ; preds = %36
  store i1 false, ptr %3, align 1
  store i32 1, ptr %8, align 4
  br label %53

52:                                               ; preds = %36
  store i1 true, ptr %3, align 1
  store i32 1, ptr %8, align 4
  br label %53

53:                                               ; preds = %52, %51, %35, %19, %13
  call void @llvm.lifetime.end.p0(i64 2, ptr %7) #3
  call void @llvm.lifetime.end.p0(i64 2, ptr %6) #3
  %54 = load i1, ptr %3, align 1
  ret i1 %54
}

; Function Attrs: null_pointer_is_valid sspstrong uwtable
define internal i32 @get_ifcp_pdu_len(ptr noundef %0, ptr noundef %1, i32 noundef %2, ptr noundef %3) #0 {
  %5 = alloca i32, align 4
  %6 = alloca ptr, align 8
  %7 = alloca ptr, align 8
  %8 = alloca i32, align 4
  %9 = alloca ptr, align 8
  %10 = alloca i32, align 4
  %11 = alloca i32, align 4
  store ptr %0, ptr %6, align 8
  store ptr %1, ptr %7, align 8
  store i32 %2, ptr %8, align 4
  store ptr %3, ptr %9, align 8
  call void @llvm.lifetime.start.p0(i64 4, ptr %10) #3
  %12 = load ptr, ptr %7, align 8
  %13 = load i32, ptr %8, align 4
  %14 = call zeroext i1 @ifcp_header_test(ptr noundef %12, i32 noundef %13)
  br i1 %14, label %16, label %15

15:                                               ; preds = %4
  store i32 0, ptr %5, align 4
  store i32 1, ptr %11, align 4
  br label %25

16:                                               ; preds = %4
  %17 = load ptr, ptr %7, align 8
  %18 = load i32, ptr %8, align 4
  %19 = add i32 %18, 12
  %20 = call zeroext i16 @tvb_get_ntohs(ptr noundef %17, i32 noundef %19)
  %21 = zext i16 %20 to i32
  %22 = and i32 %21, 1023
  %23 = mul i32 %22, 4
  store i32 %23, ptr %10, align 4
  %24 = load i32, ptr %10, align 4
  store i32 %24, ptr %5, align 4
  store i32 1, ptr %11, align 4
  br label %25

25:                                               ; preds = %16, %15
  call void @llvm.lifetime.end.p0(i64 4, ptr %10) #3
  %26 = load i32, ptr %5, align 4
  ret i32 %26
}