; Function Attrs: null_pointer_is_valid sspstrong uwtable
define internal range(i32 0, 4093) i32 @get_ifcp_pdu_len(ptr readnone captures(none) %0, ptr noundef %1, i32 noundef %2, ptr readnone captures(none) %3) #0 {
  %5 = tail call i32 @tvb_captured_length_remaining(ptr noundef %1, i32 noundef %2)
  %6 = icmp slt i32 %5, 16
  br i1 %6, label %ifcp_header_test.exit.thread, label %7

7:                                                ; preds = %4
  %8 = tail call i32 @tvb_memeql(ptr noundef %1, i32 noundef %2, ptr noundef nonnull @ifcp_header_4_bytes, i64 noundef 4)
  %.not.i = icmp eq i32 %8, 0
  br i1 %.not.i, label %9, label %ifcp_header_test.exit.thread

9:                                                ; preds = %7
  %10 = add i32 %2, 12
  %11 = tail call zeroext i16 @tvb_get_ntohs(ptr noundef %1, i32 noundef %10)
  %12 = and i16 %11, 1023
  %13 = add nsw i16 %12, -546
  %or.cond.i = icmp ult i16 %13, -531
  br i1 %or.cond.i, label %ifcp_header_test.exit.thread, label %ifcp_header_test.exit

ifcp_header_test.exit:                            ; preds = %9
  %14 = add i32 %2, 14
  %15 = tail call zeroext i16 @tvb_get_ntohs(ptr noundef %1, i32 noundef %14)
  %16 = xor i16 %15, %11
  %17 = and i16 %16, 1023
  %.not15.i = icmp eq i16 %17, 1023
  br i1 %.not15.i, label %18, label %ifcp_header_test.exit.thread

18:                                               ; preds = %ifcp_header_test.exit
  %19 = tail call zeroext i16 @tvb_get_ntohs(ptr noundef %1, i32 noundef %10)
  %20 = shl i16 %19, 2
  %21 = and i16 %20, 4092
  %22 = zext nneg i16 %21 to i32
  br label %ifcp_header_test.exit.thread

ifcp_header_test.exit.thread:                     ; preds = %9, %7, %4, %ifcp_header_test.exit, %18
  %.0 = phi i32 [ %22, %18 ], [ 0, %ifcp_header_test.exit ], [ 0, %4 ], [ 0, %7 ], [ 0, %9 ]
  ret i32 %.0
}